#include <math.h>
#include <stdio.h>
#include <stdlib.h>
#include <string.h>

int main ()
{
    int a[1000][20];
    int i,j,k,n=0;
    int x[1000];
    for (i=0;i<1000;i++)
    {
        x[i]=0;
        for (j=0;j<20;j++)
        {
            scanf ("%d",&a[i][j]);
            if (a[i][j]==0){n++;break;}
            if (a[i][j]==-1)break;
         }
        if (a[i][0]==-1)break;
    }
    for (i=0;i<n;i++)
    {
        for (j=0;a[i][j]!=0;j++)
        {
             for (k=0;a[i][k]!=0;k++)
             {
                 if (a[i][j]==2*a[i][k])x[i]++;
             }
         }
     }
     for (i=0;i<n;i++)
     {
         printf ("%d\n",x[i]);
      }
     return 0;
}